target datalayout = "e-m:e-p270:32:32-p271:32:32-p272:64:64-i64:64-i128:128-f80:128-n8:16:32:64-S128"
target triple = "x86_64-pc-linux-gnu"

%struct.rgb_struct = type { double, double, double }
%struct.xyz_struct = type { double, double, double }

; Function Attrs: nounwind uwtable
define void @color_xyz_init(ptr dead_on_unwind noalias writable sret(%struct.xyz_struct) align 8 %0, double noundef %1, double noundef %2, double noundef %3) #0 {
  %5 = alloca double, align 8
  %6 = alloca double, align 8
  %7 = alloca double, align 8
  store double %1, ptr %5, align 8, !tbaa !3
  store double %2, ptr %6, align 8, !tbaa !3
  store double %3, ptr %7, align 8, !tbaa !3
  %8 = load double, ptr %5, align 8, !tbaa !3
  %9 = getelementptr inbounds nuw %struct.xyz_struct, ptr %0, i32 0, i32 0
  store double %8, ptr %9, align 8, !tbaa !11
  %10 = load double, ptr %6, align 8, !tbaa !3
  %11 = getelementptr inbounds nuw %struct.xyz_struct, ptr %0, i32 0, i32 1
  store double %10, ptr %11, align 8, !tbaa !13
  %12 = load double, ptr %7, align 8, !tbaa !3
  %13 = getelementptr inbounds nuw %struct.xyz_struct, ptr %0, i32 0, i32 2
  store double %12, ptr %13, align 8, !tbaa !14
  ret void
}

; Function Attrs: nounwind uwtable
define internal double @PivotRgb(double noundef %0) #0 {
  %2 = alloca double, align 8
  %3 = alloca double, align 8
  store double %0, ptr %3, align 8, !tbaa !3
  %4 = load double, ptr %3, align 8, !tbaa !3
  %5 = fcmp ogt double %4, 4.045000e-02
  br i1 %5, label %6, label %12

6:                                                ; preds = %1
  %7 = load double, ptr %3, align 8, !tbaa !3
  %8 = fadd double %7, 5.500000e-02
  %9 = fdiv double %8, 1.055000e+00
  %10 = call double @pow(double noundef %9, double noundef 2.400000e+00) #11, !tbaa !19
  %11 = fmul double 1.000000e+02, %10
  store double %11, ptr %2, align 8
  br label %16

12:                                               ; preds = %1
  %13 = load double, ptr %3, align 8, !tbaa !3
  %14 = fmul double 1.000000e+02, %13
  %15 = fdiv double %14, 1.292000e+01
  store double %15, ptr %2, align 8
  br label %16

16:                                               ; preds = %12, %6
  %17 = load double, ptr %2, align 8
  ret double %17
}

; Function Attrs: nounwind uwtable
define void @RGB2XYZ(ptr dead_on_unwind noalias writable sret(%struct.xyz_struct) align 8 %0, ptr noundef byval(%struct.rgb_struct) align 8 %1) #0 {
  %3 = alloca double, align 8
  %4 = alloca double, align 8
  %5 = alloca double, align 8
  call void @llvm.lifetime.start.p0(i64 8, ptr %3) #11
  %6 = getelementptr inbounds nuw %struct.rgb_struct, ptr %1, i32 0, i32 0
  %7 = load double, ptr %6, align 8, !tbaa !7
  %8 = fdiv double %7, 2.550000e+02
  %9 = call double @PivotRgb(double noundef %8)
  store double %9, ptr %3, align 8, !tbaa !3
  call void @llvm.lifetime.start.p0(i64 8, ptr %4) #11
  %10 = getelementptr inbounds nuw %struct.rgb_struct, ptr %1, i32 0, i32 1
  %11 = load double, ptr %10, align 8, !tbaa !9
  %12 = fdiv double %11, 2.550000e+02
  %13 = call double @PivotRgb(double noundef %12)
  store double %13, ptr %4, align 8, !tbaa !3
  call void @llvm.lifetime.start.p0(i64 8, ptr %5) #11
  %14 = getelementptr inbounds nuw %struct.rgb_struct, ptr %1, i32 0, i32 2
  %15 = load double, ptr %14, align 8, !tbaa !10
  %16 = fdiv double %15, 2.550000e+02
  %17 = call double @PivotRgb(double noundef %16)
  store double %17, ptr %5, align 8, !tbaa !3
  %18 = load double, ptr %3, align 8, !tbaa !3
  %19 = load double, ptr %4, align 8, !tbaa !3
  %20 = fmul double %19, 3.576000e-01
  %21 = call double @llvm.fmuladd.f64(double %18, double 4.124000e-01, double %20)
  %22 = load double, ptr %5, align 8, !tbaa !3
  %23 = call double @llvm.fmuladd.f64(double %22, double 1.805000e-01, double %21)
  %24 = load double, ptr %3, align 8, !tbaa !3
  %25 = load double, ptr %4, align 8, !tbaa !3
  %26 = fmul double %25, 7.152000e-01
  %27 = call double @llvm.fmuladd.f64(double %24, double 2.126000e-01, double %26)
  %28 = load double, ptr %5, align 8, !tbaa !3
  %29 = call double @llvm.fmuladd.f64(double %28, double 7.220000e-02, double %27)
  %30 = load double, ptr %3, align 8, !tbaa !3
  %31 = load double, ptr %4, align 8, !tbaa !3
  %32 = fmul double %31, 1.192000e-01
  %33 = call double @llvm.fmuladd.f64(double %30, double 1.930000e-02, double %32)
  %34 = load double, ptr %5, align 8, !tbaa !3
  %35 = call double @llvm.fmuladd.f64(double %34, double 9.505000e-01, double %33)
  call void @color_xyz_init(ptr dead_on_unwind writable sret(%struct.xyz_struct) align 8 %0, double noundef %23, double noundef %29, double noundef %35)
  call void @llvm.lifetime.end.p0(i64 8, ptr %5) #11
  call void @llvm.lifetime.end.p0(i64 8, ptr %4) #11
  call void @llvm.lifetime.end.p0(i64 8, ptr %3) #11
  ret void
}