; Function Attrs: mustprogress nofree nounwind willreturn memory(write, argmem: readwrite) uwtable
define void @RGB2XYZ(ptr dead_on_unwind noalias writable writeonly sret(%struct.xyz_struct) align 8 captures(none) initializes((0, 24)) %0, ptr noundef readonly byval(%struct.rgb_struct) align 8 captures(none) %1) local_unnamed_addr #1 {
  %3 = load double, ptr %1, align 8, !tbaa !3
  %4 = fdiv double %3, 2.550000e+02
  %5 = fcmp ogt double %4, 4.045000e-02
  br i1 %5, label %6, label %11

6:                                                ; preds = %2
  %7 = fadd double %4, 5.500000e-02
  %8 = fdiv double %7, 1.055000e+00
  %9 = tail call double @pow(double noundef %8, double noundef 2.400000e+00) #19, !tbaa !18
  %10 = fmul double %9, 1.000000e+02
  br label %PivotRgb.exit

11:                                               ; preds = %2
  %12 = fmul double %4, 1.000000e+02
  %13 = fdiv double %12, 1.292000e+01
  br label %PivotRgb.exit

PivotRgb.exit:                                    ; preds = %6, %11
  %.0.i = phi double [ %10, %6 ], [ %13, %11 ]
  %14 = getelementptr inbounds nuw i8, ptr %1, i64 8
  %15 = load double, ptr %14, align 8, !tbaa !8
  %16 = fdiv double %15, 2.550000e+02
  %17 = fcmp ogt double %16, 4.045000e-02
  br i1 %17, label %18, label %23

18:                                               ; preds = %PivotRgb.exit
  %19 = fadd double %16, 5.500000e-02
  %20 = fdiv double %19, 1.055000e+00
  %21 = tail call double @pow(double noundef %20, double noundef 2.400000e+00) #19, !tbaa !18
  %22 = fmul double %21, 1.000000e+02
  br label %PivotRgb.exit10

23:                                               ; preds = %PivotRgb.exit
  %24 = fmul double %16, 1.000000e+02
  %25 = fdiv double %24, 1.292000e+01
  br label %PivotRgb.exit10

PivotRgb.exit10:                                  ; preds = %18, %23
  %.0.i9 = phi double [ %22, %18 ], [ %25, %23 ]
  %26 = getelementptr inbounds nuw i8, ptr %1, i64 16
  %27 = load double, ptr %26, align 8, !tbaa !9
  %28 = fdiv double %27, 2.550000e+02
  %29 = fcmp ogt double %28, 4.045000e-02
  br i1 %29, label %30, label %35

30:                                               ; preds = %PivotRgb.exit10
  %31 = fadd double %28, 5.500000e-02
  %32 = fdiv double %31, 1.055000e+00
  %33 = tail call double @pow(double noundef %32, double noundef 2.400000e+00) #19, !tbaa !18
  %34 = fmul double %33, 1.000000e+02
  br label %PivotRgb.exit12

35:                                               ; preds = %PivotRgb.exit10
  %36 = fmul double %28, 1.000000e+02
  %37 = fdiv double %36, 1.292000e+01
  br label %PivotRgb.exit12

PivotRgb.exit12:                                  ; preds = %30, %35
  %.0.i11 = phi double [ %34, %30 ], [ %37, %35 ]
  %38 = fmul double %.0.i9, 3.576000e-01
  %39 = tail call double @llvm.fmuladd.f64(double %.0.i, double 4.124000e-01, double %38)
  %40 = tail call double @llvm.fmuladd.f64(double %.0.i11, double 1.805000e-01, double %39)
  %41 = fmul double %.0.i9, 7.152000e-01
  %42 = tail call double @llvm.fmuladd.f64(double %.0.i, double 2.126000e-01, double %41)
  %43 = tail call double @llvm.fmuladd.f64(double %.0.i11, double 7.220000e-02, double %42)
  %44 = fmul double %.0.i9, 1.192000e-01
  %45 = tail call double @llvm.fmuladd.f64(double %.0.i, double 1.930000e-02, double %44)
  %46 = tail call double @llvm.fmuladd.f64(double %.0.i11, double 9.505000e-01, double %45)
  store double %40, ptr %0, align 8, !tbaa !10, !alias.scope !20
  %47 = getelementptr inbounds nuw i8, ptr %0, i64 8
  store double %43, ptr %47, align 8, !tbaa !12, !alias.scope !20
  %48 = getelementptr inbounds nuw i8, ptr %0, i64 16
  store double %46, ptr %48, align 8, !tbaa !13, !alias.scope !20
  ret void
}